target datalayout = "e-m:e-p270:32:32-p271:32:32-p272:64:64-i64:64-i128:128-f80:128-n8:16:32:64-S128"
target triple = "x86_64-pc-linux-gnu"

@.str.9 = private unnamed_addr constant [52 x i8] c"NULL cert at index %zu in X509 cert list; skipping\0A\00", align 1
@.str.10 = private unnamed_addr constant [50 x i8] c"Certificate skipped; already exists in store: %s\0A\00", align 1
@.str.11 = private unnamed_addr constant [1 x i8] zeroinitializer, align 1
@.str.12 = private unnamed_addr constant [51 x i8] c"Failed to add certificate to store: %s (%lu) [%s]\0A\00", align 1

; Function Attrs: nounwind uwtable
define internal i32 @ERR_GET_REASON(i64 noundef %0) #0 {
  %2 = alloca i32, align 4
  %3 = alloca i64, align 8
  store i64 %0, ptr %3, align 8
  %4 = load i64, ptr %3, align 8
  %5 = and i64 %4, 2147483648
  %6 = icmp ne i64 %5, 0
  br i1 %6, label %7, label %11

7:                                                ; preds = %1
  %8 = load i64, ptr %3, align 8
  %9 = and i64 %8, 2147483647
  %10 = trunc i64 %9 to i32
  store i32 %10, ptr %2, align 4
  br label %15

11:                                               ; preds = %1
  %12 = load i64, ptr %3, align 8
  %13 = and i64 %12, 8388607
  %14 = trunc i64 %13 to i32
  store i32 %14, ptr %2, align 4
  br label %15

15:                                               ; preds = %11, %7
  %16 = load i32, ptr %2, align 4
  ret i32 %16
}

; Function Attrs: nounwind uwtable
define void @cert_fill_X509_store(ptr noundef %0, ptr noundef %1, i64 noundef %2) #0 {
  %4 = alloca ptr, align 8
  %5 = alloca ptr, align 8
  %6 = alloca i64, align 8
  %7 = alloca i64, align 8
  %8 = alloca i64, align 8
  %9 = alloca ptr, align 8
  store ptr %0, ptr %4, align 8
  store ptr %1, ptr %5, align 8
  store i64 %2, ptr %6, align 8
  %10 = load ptr, ptr %4, align 8
  %11 = icmp ne ptr %10, null
  br i1 %11, label %12, label %79

12:                                               ; preds = %3
  %13 = load ptr, ptr %5, align 8
  %14 = icmp ne ptr %13, null
  br i1 %14, label %15, label %79

15:                                               ; preds = %12
  %16 = load i64, ptr %6, align 8
  %17 = icmp ugt i64 %16, 0
  br i1 %17, label %18, label %79

18:                                               ; preds = %15
  store i64 0, ptr %7, align 8
  br label %19

19:                                               ; preds = %75, %18
  %20 = load i64, ptr %7, align 8
  %21 = load i64, ptr %6, align 8
  %22 = icmp ult i64 %20, %21
  br i1 %22, label %23, label %78

23:                                               ; preds = %19
  %24 = load ptr, ptr %5, align 8
  %25 = load i64, ptr %7, align 8
  %26 = getelementptr inbounds ptr, ptr %24, i64 %25
  %27 = load ptr, ptr %26, align 8
  %28 = icmp ne ptr %27, null
  br i1 %28, label %31, label %29

29:                                               ; preds = %23
  %30 = load i64, ptr %7, align 8
  call void (i32, ptr, ...) @mprintf(i32 noundef 5, ptr noundef @.str.9, i64 noundef %30)
  br label %75

31:                                               ; preds = %23
  %32 = load ptr, ptr %4, align 8
  %33 = load ptr, ptr %5, align 8
  %34 = load i64, ptr %7, align 8
  %35 = getelementptr inbounds ptr, ptr %33, i64 %34
  %36 = load ptr, ptr %35, align 8
  %37 = call i32 @X509_STORE_add_cert(ptr noundef %32, ptr noundef %36)
  %38 = icmp ne i32 %37, 1
  br i1 %38, label %39, label %74

39:                                               ; preds = %31
  store ptr null, ptr %9, align 8
  %40 = load ptr, ptr %5, align 8
  %41 = load i64, ptr %7, align 8
  %42 = getelementptr inbounds ptr, ptr %40, i64 %41
  %43 = load ptr, ptr %42, align 8
  %44 = call i32 @x509_get_cert_name(ptr noundef %43, ptr noundef %9)
  %45 = call i64 @ERR_get_error()
  store i64 %45, ptr %8, align 8
  %46 = load i64, ptr %8, align 8
  %47 = call i32 @ERR_GET_REASON(i64 noundef %46)
  %48 = icmp eq i32 101, %47
  br i1 %48, label %49, label %57

49:                                               ; preds = %39
  %50 = load ptr, ptr %9, align 8
  %51 = icmp ne ptr %50, null
  br i1 %51, label %52, label %54

52:                                               ; preds = %49
  %53 = load ptr, ptr %9, align 8
  br label %55

54:                                               ; preds = %49
  br label %55

55:                                               ; preds = %54, %52
  %56 = phi ptr [ %53, %52 ], [ @.str.11, %54 ]
  call void (i32, ptr, ...) @mprintf(i32 noundef 2, ptr noundef @.str.10, ptr noundef %56)
  br label %68

57:                                               ; preds = %39
  %58 = load i64, ptr %8, align 8
  %59 = call ptr @ERR_error_string(i64 noundef %58, ptr noundef null)
  %60 = load i64, ptr %8, align 8
  %61 = load ptr, ptr %9, align 8
  %62 = icmp ne ptr %61, null
  br i1 %62, label %63, label %65

63:                                               ; preds = %57
  %64 = load ptr, ptr %9, align 8
  br label %66

65:                                               ; preds = %57
  br label %66

66:                                               ; preds = %65, %63
  %67 = phi ptr [ %64, %63 ], [ @.str.11, %65 ]
  call void (i32, ptr, ...) @mprintf(i32 noundef 5, ptr noundef @.str.12, ptr noundef %59, i64 noundef %60, ptr noundef %67)
  br label %68

68:                                               ; preds = %66, %55
  %69 = load ptr, ptr %9, align 8
  %70 = icmp ne ptr null, %69
  br i1 %70, label %71, label %73

71:                                               ; preds = %68
  %72 = load ptr, ptr %9, align 8
  call void @free(ptr noundef %72) #10
  store ptr null, ptr %9, align 8
  br label %73

73:                                               ; preds = %71, %68
  br label %74

74:                                               ; preds = %73, %31
  br label %75

75:                                               ; preds = %74, %29
  %76 = load i64, ptr %7, align 8
  %77 = add i64 %76, 1
  store i64 %77, ptr %7, align 8
  br label %19

78:                                               ; preds = %19
  br label %79

79:                                               ; preds = %78, %15, %12, %3
  ret void
}