; Function Attrs: nounwind uwtable
define void @cert_fill_X509_store(ptr noundef %0, ptr noundef readonly %1, i64 noundef %2) local_unnamed_addr #1 {
  %4 = alloca ptr, align 8
  %5 = icmp ne ptr %0, null
  %6 = icmp ne ptr %1, null
  %or.cond = and i1 %5, %6
  %7 = icmp ne i64 %2, 0
  %or.cond3 = and i1 %or.cond, %7
  br i1 %or.cond3, label %.preheader, label %.loopexit

.preheader:                                       ; preds = %3, %30
  %.028 = phi i64 [ %31, %30 ], [ 0, %3 ]
  %8 = getelementptr inbounds ptr, ptr %1, i64 %.028
  %9 = load ptr, ptr %8, align 8
  %.not = icmp eq ptr %9, null
  br i1 %.not, label %10, label %11

10:                                               ; preds = %.preheader
  call void (i32, ptr, ...) @mprintf(i32 noundef 5, ptr noundef nonnull @.str.9, i64 noundef %.028) #15
  br label %30

11:                                               ; preds = %.preheader
  %12 = call i32 @X509_STORE_add_cert(ptr noundef nonnull %0, ptr noundef nonnull %9) #15
  %.not24 = icmp eq i32 %12, 1
  br i1 %.not24, label %30, label %13

13:                                               ; preds = %11
  store ptr null, ptr %4, align 8
  %14 = load ptr, ptr %8, align 8
  %15 = call i32 @x509_get_cert_name(ptr noundef %14, ptr noundef nonnull %4), !range !5
  %16 = call i64 @ERR_get_error() #15
  %17 = and i64 %16, 2147483648
  %.not.i = icmp eq i64 %17, 0
  %18 = trunc i64 %16 to i32
  %.0.v.i = select i1 %.not.i, i32 8388607, i32 2147483647
  %.0.i = and i32 %.0.v.i, %18
  %19 = icmp eq i32 %.0.i, 101
  br i1 %19, label %20, label %23

20:                                               ; preds = %13
  %21 = load ptr, ptr %4, align 8
  %.not26 = icmp eq ptr %21, null
  %22 = select i1 %.not26, ptr @.str.11, ptr %21
  call void (i32, ptr, ...) @mprintf(i32 noundef 2, ptr noundef nonnull @.str.10, ptr noundef nonnull %22) #15
  br label %27

23:                                               ; preds = %13
  %24 = call ptr @ERR_error_string(i64 noundef %16, ptr noundef null) #15
  %25 = load ptr, ptr %4, align 8
  %.not25 = icmp eq ptr %25, null
  %26 = select i1 %.not25, ptr @.str.11, ptr %25
  call void (i32, ptr, ...) @mprintf(i32 noundef 5, ptr noundef nonnull @.str.12, ptr noundef %24, i64 noundef %16, ptr noundef nonnull %26) #15
  br label %27

27:                                               ; preds = %23, %20
  %28 = load ptr, ptr %4, align 8
  %.not27 = icmp eq ptr %28, null
  br i1 %.not27, label %30, label %29

29:                                               ; preds = %27
  call void @free(ptr noundef nonnull %28) #15
  store ptr null, ptr %4, align 8
  br label %30

30:                                               ; preds = %11, %29, %27, %10
  %31 = add nuw i64 %.028, 1
  %exitcond.not = icmp eq i64 %31, %2
  br i1 %exitcond.not, label %.loopexit, label %.preheader

.loopexit:                                        ; preds = %30, %3
  ret void
}